target datalayout = "e-m:e-p270:32:32-p271:32:32-p272:64:64-i64:64-i128:128-f80:128-n8:16:32:64-S128"
target triple = "x86_64-pc-linux-gnu"

%struct.pg_conn = type { ptr, ptr, ptr, ptr, ptr, ptr, ptr, ptr, ptr, ptr, ptr, ptr, ptr, ptr, ptr, ptr, ptr, ptr, ptr, ptr, ptr, ptr, ptr, ptr, ptr, ptr, ptr, ptr, ptr, ptr, ptr, ptr, ptr, ptr, ptr, ptr, ptr, ptr, ptr, ptr, ptr, ptr, ptr, i8, ptr, i32, %struct.PGNoticeHooks, ptr, i32, i32, i32, i32, i32, [6 x i8], i8, i8, i32, i8, i8, i32, i8, i32, ptr, ptr, i32, i32, ptr, ptr, ptr, ptr, ptr, i32, %struct.SockAddr, %struct.SockAddr, i32, i32, i8, i8, i8, i8, i8, i8, ptr, i8, i32, [1 x ptr], i8, i8, ptr, ptr, i32, i32, i32, i8, i8, i32, i32, ptr, i8, i64, ptr, i64, ptr, i32, i32, ptr, i32, i8, i32, i32, i32, i32, ptr, %struct.pg_prng_state, ptr, i32, i32, i32, i32, ptr, i32, i32, i32, i32, ptr, i32, ptr, i8, ptr, ptr, ptr, i32, i8, i8, i8, i8, i8, i8, i8, i8, %struct.PQExpBufferData, i32, %struct.PQExpBufferData }
%struct.PGNoticeHooks = type { ptr, ptr, ptr, ptr }
%struct.SockAddr = type { %struct.sockaddr_storage, i32 }
%struct.sockaddr_storage = type { i16, [118 x i8], i64 }
%struct.pg_prng_state = type { i64, i64 }
%struct.PQExpBufferData = type { ptr, i64, i64 }

@.str.1 = private unnamed_addr constant [46 x i8] c"integer of size %lu not supported by pqPutInt\00", align 1

; Function Attrs: nounwind uwtable
define i32 @pqPutInt(i32 noundef %0, i64 noundef %1, ptr noundef %2) #0 {
  %4 = alloca i32, align 4
  %5 = alloca i32, align 4
  %6 = alloca i64, align 8
  %7 = alloca ptr, align 8
  %8 = alloca i16, align 2
  %9 = alloca i32, align 4
  %10 = alloca i32, align 4
  store i32 %0, ptr %5, align 4
  store i64 %1, ptr %6, align 8
  store ptr %2, ptr %7, align 8
  call void @llvm.lifetime.start.p0(i64 2, ptr %8) #10
  call void @llvm.lifetime.start.p0(i64 4, ptr %9) #10
  %11 = load i64, ptr %6, align 8
  switch i64 %11, label %29 [
    i64 2, label %12
    i64 4, label %21
  ]

12:                                               ; preds = %3
  %13 = load i32, ptr %5, align 4
  %14 = trunc i32 %13 to i16
  %15 = call i16 @llvm.bswap.i16(i16 %14)
  store i16 %15, ptr %8, align 2
  %16 = load ptr, ptr %7, align 8
  %17 = call i32 @pqPutMsgBytes(ptr noundef %8, i64 noundef 2, ptr noundef %16)
  %18 = icmp ne i32 %17, 0
  br i1 %18, label %19, label %20

19:                                               ; preds = %12
  store i32 -1, ptr %4, align 4
  store i32 1, ptr %10, align 4
  br label %34

20:                                               ; preds = %12
  br label %33

21:                                               ; preds = %3
  %22 = load i32, ptr %5, align 4
  %23 = call i32 @llvm.bswap.i32(i32 %22)
  store i32 %23, ptr %9, align 4
  %24 = load ptr, ptr %7, align 8
  %25 = call i32 @pqPutMsgBytes(ptr noundef %9, i64 noundef 4, ptr noundef %24)
  %26 = icmp ne i32 %25, 0
  br i1 %26, label %27, label %28

27:                                               ; preds = %21
  store i32 -1, ptr %4, align 4
  store i32 1, ptr %10, align 4
  br label %34

28:                                               ; preds = %21
  br label %33

29:                                               ; preds = %3
  %30 = load ptr, ptr %7, align 8
  %31 = getelementptr inbounds nuw %struct.pg_conn, ptr %30, i32 0, i32 46
  %32 = load i64, ptr %6, align 8
  call void (ptr, ptr, ...) @pqInternalNotice(ptr noundef %31, ptr noundef @.str.1, i64 noundef %32)
  store i32 -1, ptr %4, align 4
  store i32 1, ptr %10, align 4
  br label %34

33:                                               ; preds = %28, %20
  store i32 0, ptr %4, align 4
  store i32 1, ptr %10, align 4
  br label %34

34:                                               ; preds = %33, %29, %27, %19
  call void @llvm.lifetime.end.p0(i64 4, ptr %9) #10
  call void @llvm.lifetime.end.p0(i64 2, ptr %8) #10
  %35 = load i32, ptr %4, align 4
  ret i32 %35
}