; Function Attrs: nounwind uwtable
define range(i32 -1, 1) i32 @pqPutInt(i32 noundef %0, i64 noundef %1, ptr noundef %2) local_unnamed_addr #2 {
  %4 = alloca i16, align 2
  %5 = alloca i32, align 4
  call void @llvm.lifetime.start.p0(i64 2, ptr nonnull %4) #19
  call void @llvm.lifetime.start.p0(i64 4, ptr nonnull %5) #19
  switch i64 %1, label %13 [
    i64 2, label %6
    i64 4, label %10
  ]

6:                                                ; preds = %3
  %7 = trunc i32 %0 to i16
  %8 = tail call i16 @llvm.bswap.i16(i16 %7)
  store i16 %8, ptr %4, align 2
  %9 = call fastcc i32 @pqPutMsgBytes(ptr noundef nonnull %4, i64 noundef 2, ptr noundef %2)
  %.not7 = icmp eq i32 %9, 0
  br i1 %.not7, label %15, label %16

10:                                               ; preds = %3
  %11 = tail call i32 @llvm.bswap.i32(i32 %0)
  store i32 %11, ptr %5, align 4
  %12 = call fastcc i32 @pqPutMsgBytes(ptr noundef nonnull %5, i64 noundef 4, ptr noundef %2)
  %.not = icmp eq i32 %12, 0
  br i1 %.not, label %15, label %16

13:                                               ; preds = %3
  %14 = getelementptr inbounds nuw i8, ptr %2, i64 368
  tail call void (ptr, ptr, ...) @pqInternalNotice(ptr noundef nonnull %14, ptr noundef nonnull @.str.1, i64 noundef %1) #19
  br label %16

15:                                               ; preds = %10, %6
  br label %16

16:                                               ; preds = %10, %6, %15, %13
  %.0 = phi i32 [ -1, %13 ], [ 0, %15 ], [ -1, %6 ], [ -1, %10 ]
  call void @llvm.lifetime.end.p0(i64 4, ptr nonnull %5) #19
  call void @llvm.lifetime.end.p0(i64 2, ptr nonnull %4) #19
  ret i32 %.0
}